; Function Attrs: mustprogress nounwind uwtable
define hidden void @_ZN6Assimp21BlenderBMeshConverterD2Ev(ptr nocapture noundef nonnull align 8 dereferenceable(16) %this) unnamed_addr #2 align 2 personality ptr @__gxx_personality_v0 {
entry:
  %triMesh.i = getelementptr inbounds i8, ptr %this, i64 8
  %0 = load ptr, ptr %triMesh.i, align 8
  %isnull.i = icmp eq ptr %0, null
  br i1 %isnull.i, label %_ZN6Assimp21BlenderBMeshConverter14DestroyTriMeshEv.exit, label %delete.notnull.i

delete.notnull.i:                                 ; preds = %entry
  %vtable.i = load ptr, ptr %0, align 8
  %vfn.i = getelementptr inbounds i8, ptr %vtable.i, i64 8
  %1 = load ptr, ptr %vfn.i, align 8
  tail call void %1(ptr noundef nonnull align 8 dereferenceable(2528) %0) #16
  br label %_ZN6Assimp21BlenderBMeshConverter14DestroyTriMeshEv.exit

_ZN6Assimp21BlenderBMeshConverter14DestroyTriMeshEv.exit: ; preds = %entry, %delete.notnull.i
  store ptr null, ptr %triMesh.i, align 8
  ret void
}